; Function Attrs: mustprogress nounwind uwtable
define void @_ZN8proxygen12WorkerThread14resetEventBaseEv(ptr nocapture noundef nonnull align 8 dereferenceable(80) %this) local_unnamed_addr #3 align 2 {
entry:
  %eventBase_ = getelementptr inbounds i8, ptr %this, i64 72
  %0 = load ptr, ptr %eventBase_, align 8
  store ptr null, ptr %eventBase_, align 8
  %tobool.not.i.i = icmp eq ptr %0, null
  br i1 %tobool.not.i.i, label %_ZNSt10unique_ptrIN5folly9EventBaseESt14default_deleteIS1_EE5resetEPS1_.exit, label %_ZNKSt14default_deleteIN5folly9EventBaseEEclEPS1_.exit.i.i

_ZNKSt14default_deleteIN5folly9EventBaseEEclEPS1_.exit.i.i: ; preds = %entry
  %vtable.i.i.i = load ptr, ptr %0, align 16
  %vfn.i.i.i = getelementptr inbounds i8, ptr %vtable.i.i.i, i64 8
  %1 = load ptr, ptr %vfn.i.i.i, align 8
  tail call void %1(ptr noundef nonnull align 16 dereferenceable(568) %0) #16
  br label %_ZNSt10unique_ptrIN5folly9EventBaseESt14default_deleteIS1_EE5resetEPS1_.exit

_ZNSt10unique_ptrIN5folly9EventBaseESt14default_deleteIS1_EE5resetEPS1_.exit: ; preds = %entry, %_ZNKSt14default_deleteIN5folly9EventBaseEEclEPS1_.exit.i.i
  ret void
}